; Function Attrs: nounwind uwtable
define range(i32 0, 2) i32 @ma_dr_wav_init_memory_ex(ptr noundef %0, ptr noundef %1, i64 noundef %2, ptr noundef captures(address_is_null) %3, ptr noundef %4, i32 noundef %5, ptr noundef readonly captures(address_is_null) %6) local_unnamed_addr #7 {
  %8 = icmp eq ptr %1, null
  %9 = icmp eq i64 %2, 0
  %or.cond = or i1 %8, %9
  %10 = icmp eq ptr %0, null
  %or.cond19 = or i1 %10, %or.cond
  br i1 %or.cond19, label %ma_dr_wav_preinit.exit.thread, label %11

11:                                               ; preds = %7
  %12 = getelementptr inbounds nuw i8, ptr %0, i64 8
  tail call void @llvm.memset.p0.i64(ptr noundef nonnull align 8 dereferenceable(400) %12, i8 0, i64 392, i1 false)
  store ptr @ma_dr_wav__on_read_memory, ptr %0, align 8, !tbaa !1141
  %13 = getelementptr inbounds nuw i8, ptr %0, i64 16
  store ptr @ma_dr_wav__on_seek_memory, ptr %13, align 8, !tbaa !1142
  %14 = getelementptr inbounds nuw i8, ptr %0, i64 24
  store ptr %0, ptr %14, align 8, !tbaa !1143
  %.not.i.i = icmp eq ptr %6, null
  br i1 %.not.i.i, label %.thread.i, label %ma_dr_wav_copy_allocation_callbacks_or_defaults.exit.i

.thread.i:                                        ; preds = %11
  %.sroa.5.0..sroa_idx30.i = getelementptr inbounds nuw i8, ptr %0, i64 40
  store ptr @ma_dr_wav__malloc_default, ptr %.sroa.5.0..sroa_idx30.i, align 8, !tbaa !27
  %.sroa.6.0..sroa_idx31.i = getelementptr inbounds nuw i8, ptr %0, i64 48
  store ptr @ma_dr_wav__realloc_default, ptr %.sroa.6.0..sroa_idx31.i, align 8, !tbaa !27
  %.sroa.7.0..sroa_idx32.i = getelementptr inbounds nuw i8, ptr %0, i64 56
  store ptr @ma_dr_wav__free_default, ptr %.sroa.7.0..sroa_idx32.i, align 8, !tbaa !27
  br label %ma_dr_wav_preinit.exit

ma_dr_wav_copy_allocation_callbacks_or_defaults.exit.i: ; preds = %11
  %15 = getelementptr inbounds nuw i8, ptr %0, i64 32
  %.sroa.0.0.copyload21.i = load ptr, ptr %6, align 8, !tbaa !27
  %.sroa.5.0..sroa_idx22.i = getelementptr inbounds nuw i8, ptr %6, i64 8
  %.sroa.5.0.copyload23.i = load ptr, ptr %.sroa.5.0..sroa_idx22.i, align 8, !tbaa !27
  %.sroa.6.0..sroa_idx24.i = getelementptr inbounds nuw i8, ptr %6, i64 16
  %.sroa.6.0.copyload25.i = load ptr, ptr %.sroa.6.0..sroa_idx24.i, align 8, !tbaa !27
  %.sroa.7.0..sroa_idx26.i = getelementptr inbounds nuw i8, ptr %6, i64 24
  %.sroa.7.0.copyload27.i = load ptr, ptr %.sroa.7.0..sroa_idx26.i, align 8, !tbaa !27
  store ptr %.sroa.0.0.copyload21.i, ptr %15, align 8, !tbaa !27
  %.sroa.5.0..sroa_idx.i = getelementptr inbounds nuw i8, ptr %0, i64 40
  store ptr %.sroa.5.0.copyload23.i, ptr %.sroa.5.0..sroa_idx.i, align 8, !tbaa !27
  %.sroa.6.0..sroa_idx.i = getelementptr inbounds nuw i8, ptr %0, i64 48
  store ptr %.sroa.6.0.copyload25.i, ptr %.sroa.6.0..sroa_idx.i, align 8, !tbaa !27
  %.sroa.7.0..sroa_idx.i = getelementptr inbounds nuw i8, ptr %0, i64 56
  store ptr %.sroa.7.0.copyload27.i, ptr %.sroa.7.0..sroa_idx.i, align 8, !tbaa !27
  %16 = icmp eq ptr %.sroa.7.0.copyload27.i, null
  br i1 %16, label %ma_dr_wav_preinit.exit.thread, label %17

17:                                               ; preds = %ma_dr_wav_copy_allocation_callbacks_or_defaults.exit.i
  %18 = icmp eq ptr %.sroa.5.0.copyload23.i, null
  %19 = icmp eq ptr %.sroa.6.0.copyload25.i, null
  %or.cond33.i = select i1 %18, i1 %19, i1 false
  br i1 %or.cond33.i, label %ma_dr_wav_preinit.exit.thread, label %ma_dr_wav_preinit.exit

ma_dr_wav_preinit.exit:                           ; preds = %17, %.thread.i
  %20 = getelementptr inbounds nuw i8, ptr %0, i64 192
  store ptr %1, ptr %20, align 8, !tbaa !1146
  %21 = getelementptr inbounds nuw i8, ptr %0, i64 200
  store i64 %2, ptr %21, align 8, !tbaa !1147
  %22 = getelementptr inbounds nuw i8, ptr %0, i64 208
  store i64 0, ptr %22, align 8, !tbaa !1148
  %23 = tail call fastcc i32 @ma_dr_wav_init__internal(ptr noundef nonnull %0, ptr noundef %3, ptr noundef %4, i32 noundef %5)
  br label %ma_dr_wav_preinit.exit.thread

ma_dr_wav_preinit.exit.thread:                    ; preds = %17, %ma_dr_wav_copy_allocation_callbacks_or_defaults.exit.i, %7, %ma_dr_wav_preinit.exit
  %.0 = phi i32 [ %23, %ma_dr_wav_preinit.exit ], [ 0, %7 ], [ 0, %ma_dr_wav_copy_allocation_callbacks_or_defaults.exit.i ], [ 0, %17 ]
  ret i32 %.0
}